target datalayout = "e-m:e-p270:32:32-p271:32:32-p272:64:64-i64:64-i128:128-f80:128-n8:16:32:64-S128"
target triple = "x86_64-pc-linux-gnu"

%"class.std::ios_base" = type { ptr, i64, i64, i32, i32, i32, ptr, %"struct.std::ios_base::_Words", [8 x %"struct.std::ios_base::_Words"], i32, ptr, %"class.std::locale" }
%"struct.std::ios_base::_Words" = type { ptr, i64 }
%"class.std::locale" = type { ptr }

@_ZN4cvc58internal7options7ioutilsL23s_iosModelUninterpPrintE = internal global i32 0, align 4
@_ZN4cvc58internal7options7ioutilsL27s_modelUninterpPrintDefaultE = internal thread_local global i32 3, align 4

; Function Attrs: mustprogress uwtable
define linkonce_odr hidden noundef nonnull align 8 dereferenceable(8) ptr @_ZNSt8ios_base5iwordEi(ptr noundef nonnull align 8 dereferenceable(216) %0, i32 noundef %1) #7 comdat align 2 {
  %3 = alloca ptr, align 8
  %4 = alloca i32, align 4
  %5 = alloca ptr, align 8
  store ptr %0, ptr %3, align 8, !tbaa !11
  store i32 %1, ptr %4, align 4, !tbaa !3
  %6 = load ptr, ptr %3, align 8
  call void @llvm.lifetime.start.p0(i64 8, ptr %5) #3
  %7 = load i32, ptr %4, align 4, !tbaa !3
  %8 = getelementptr inbounds nuw %"class.std::ios_base", ptr %6, i32 0, i32 9
  %9 = load i32, ptr %8, align 8, !tbaa !34
  %10 = icmp ult i32 %7, %9
  br i1 %10, label %11, label %17

11:                                               ; preds = %2
  %12 = getelementptr inbounds nuw %"class.std::ios_base", ptr %6, i32 0, i32 10
  %13 = load ptr, ptr %12, align 8, !tbaa !43
  %14 = load i32, ptr %4, align 4, !tbaa !3
  %15 = sext i32 %14 to i64
  %16 = getelementptr inbounds %"struct.std::ios_base::_Words", ptr %13, i64 %15
  br label %20

17:                                               ; preds = %2
  %18 = load i32, ptr %4, align 4, !tbaa !3
  %19 = call noundef nonnull align 8 dereferenceable(16) ptr @_ZNSt8ios_base13_M_grow_wordsEib(ptr noundef nonnull align 8 dereferenceable(216) %6, i32 noundef %18, i1 noundef zeroext true)
  br label %20

20:                                               ; preds = %17, %11
  %21 = phi ptr [ %16, %11 ], [ %19, %17 ]
  store ptr %21, ptr %5, align 8, !tbaa !44
  %22 = load ptr, ptr %5, align 8, !tbaa !44
  %23 = getelementptr inbounds nuw %"struct.std::ios_base::_Words", ptr %22, i32 0, i32 1
  call void @llvm.lifetime.end.p0(i64 8, ptr %5) #3
  ret ptr %23
}

; Function Attrs: mustprogress uwtable
define internal noundef i32 @_ZN4cvc58internal7options7ioutils12_GLOBAL__N_17getDataINS1_22ModelUninterpPrintModeEEET_RSt8ios_baseiS6_(ptr noundef nonnull align 8 dereferenceable(216) %0, i32 noundef %1, i32 noundef %2) #7 {
  %4 = alloca i32, align 4
  %5 = alloca ptr, align 8
  %6 = alloca i32, align 4
  %7 = alloca i32, align 4
  %8 = alloca ptr, align 8
  %9 = alloca i32, align 4
  store ptr %0, ptr %5, align 8, !tbaa !11
  store i32 %1, ptr %6, align 4, !tbaa !3
  store i32 %2, ptr %7, align 4, !tbaa !18
  call void @llvm.lifetime.start.p0(i64 8, ptr %8) #3
  %10 = load ptr, ptr %5, align 8, !tbaa !11
  %11 = load i32, ptr %6, align 4, !tbaa !3
  %12 = call noundef nonnull align 8 dereferenceable(8) ptr @_ZNSt8ios_base5iwordEi(ptr noundef nonnull align 8 dereferenceable(216) %10, i32 noundef %11)
  store ptr %12, ptr %8, align 8, !tbaa !16
  %13 = load ptr, ptr %8, align 8, !tbaa !16
  %14 = load i64, ptr %13, align 8, !tbaa !14
  %15 = icmp eq i64 %14, 0
  br i1 %15, label %16, label %18

16:                                               ; preds = %3
  %17 = load i32, ptr %7, align 4, !tbaa !18
  store i32 %17, ptr %4, align 4
  store i32 1, ptr %9, align 4
  br label %23

18:                                               ; preds = %3
  %19 = load ptr, ptr %8, align 8, !tbaa !16
  %20 = load i64, ptr %19, align 8, !tbaa !14
  %21 = sub nsw i64 %20, 1024
  %22 = trunc i64 %21 to i32
  store i32 %22, ptr %4, align 4
  store i32 1, ptr %9, align 4
  br label %23

23:                                               ; preds = %18, %16
  call void @llvm.lifetime.end.p0(i64 8, ptr %8) #3
  %24 = load i32, ptr %4, align 4
  ret i32 %24
}

; Function Attrs: mustprogress uwtable
define hidden noundef i32 @_ZN4cvc58internal7options7ioutils21getModelUninterpPrintERSt8ios_base(ptr noundef nonnull align 8 dereferenceable(216) %0) #7 {
  %2 = alloca ptr, align 8
  store ptr %0, ptr %2, align 8, !tbaa !11
  %3 = load ptr, ptr %2, align 8, !tbaa !11
  %4 = load i32, ptr @_ZN4cvc58internal7options7ioutilsL23s_iosModelUninterpPrintE, align 4, !tbaa !3
  %5 = call align 4 ptr @llvm.threadlocal.address.p0(ptr align 4 @_ZN4cvc58internal7options7ioutilsL27s_modelUninterpPrintDefaultE)
  %6 = load i32, ptr %5, align 4, !tbaa !18
  %7 = call noundef i32 @_ZN4cvc58internal7options7ioutils12_GLOBAL__N_17getDataINS1_22ModelUninterpPrintModeEEET_RSt8ios_baseiS6_(ptr noundef nonnull align 8 dereferenceable(216) %3, i32 noundef %4, i32 noundef %6)
  ret i32 %7
}